target datalayout = "e-m:e-p270:32:32-p271:32:32-p272:64:64-i64:64-i128:128-f80:128-n8:16:32:64-S128"
target triple = "x86_64-pc-linux-gnu"

%struct.archive_write_filter = type { i64, ptr, ptr, ptr, ptr, ptr, ptr, ptr, ptr, ptr, ptr, i32, i32, i32, i32 }
%struct.private_data = type { i32, i32, i32, i32, i32, i64, i64, i64, i64, i64, i64, i64, i64, ptr, %struct.ZSTD_outBuffer_s }
%struct.ZSTD_outBuffer_s = type { ptr, i64, i64 }

; Function Attrs: nounwind uwtable
define internal i32 @archive_compressor_zstd_flush(ptr noundef %0) #0 {
  %2 = alloca ptr, align 8
  %3 = alloca ptr, align 8
  store ptr %0, ptr %2, align 8, !tbaa !11
  call void @llvm.lifetime.start.p0(i64 8, ptr %3) #8
  %4 = load ptr, ptr %2, align 8, !tbaa !11
  %5 = getelementptr inbounds nuw %struct.archive_write_filter, ptr %4, i32 0, i32 9
  %6 = load ptr, ptr %5, align 8, !tbaa !17
  store ptr %6, ptr %3, align 8, !tbaa !15
  %7 = load ptr, ptr %3, align 8, !tbaa !15
  %8 = getelementptr inbounds nuw %struct.private_data, ptr %7, i32 0, i32 4
  %9 = load i32, ptr %8, align 8, !tbaa !34
  %10 = icmp ne i32 %9, 0
  br i1 %10, label %11, label %36

11:                                               ; preds = %1
  %12 = load ptr, ptr %3, align 8, !tbaa !15
  %13 = getelementptr inbounds nuw %struct.private_data, ptr %12, i32 0, i32 3
  %14 = load i32, ptr %13, align 4, !tbaa !58
  %15 = icmp eq i32 %14, 0
  br i1 %15, label %16, label %36

16:                                               ; preds = %11
  %17 = load ptr, ptr %3, align 8, !tbaa !15
  %18 = getelementptr inbounds nuw %struct.private_data, ptr %17, i32 0, i32 10
  %19 = load i64, ptr %18, align 8, !tbaa !39
  %20 = load ptr, ptr %3, align 8, !tbaa !15
  %21 = getelementptr inbounds nuw %struct.private_data, ptr %20, i32 0, i32 5
  %22 = load i64, ptr %21, align 8, !tbaa !35
  %23 = icmp ugt i64 %19, %22
  br i1 %23, label %24, label %35

24:                                               ; preds = %16
  %25 = load ptr, ptr %3, align 8, !tbaa !15
  %26 = getelementptr inbounds nuw %struct.private_data, ptr %25, i32 0, i32 11
  %27 = load i64, ptr %26, align 8, !tbaa !40
  %28 = load ptr, ptr %3, align 8, !tbaa !15
  %29 = getelementptr inbounds nuw %struct.private_data, ptr %28, i32 0, i32 7
  %30 = load i64, ptr %29, align 8, !tbaa !37
  %31 = icmp ugt i64 %27, %30
  br i1 %31, label %32, label %35

32:                                               ; preds = %24
  %33 = load ptr, ptr %3, align 8, !tbaa !15
  %34 = getelementptr inbounds nuw %struct.private_data, ptr %33, i32 0, i32 3
  store i32 1, ptr %34, align 4, !tbaa !58
  br label %35

35:                                               ; preds = %32, %24, %16
  br label %36

36:                                               ; preds = %35, %11, %1
  %37 = load ptr, ptr %2, align 8, !tbaa !11
  %38 = load ptr, ptr %3, align 8, !tbaa !15
  %39 = call i32 @drive_compressor(ptr noundef %37, ptr noundef %38, i32 noundef 1, ptr noundef null, i64 noundef 0)
  call void @llvm.lifetime.end.p0(i64 8, ptr %3) #8
  ret i32 %39
}