; Function Attrs: nounwind uwtable
define internal range(i32 -30, 1) i32 @archive_compressor_zstd_flush(ptr noundef readonly captures(none) %0) #0 {
  %2 = getelementptr inbounds nuw i8, ptr %0, i64 72
  %3 = load ptr, ptr %2, align 8, !tbaa !4
  %4 = getelementptr inbounds nuw i8, ptr %3, i64 16
  %5 = load i32, ptr %4, align 8, !tbaa !43
  %.not = icmp eq i32 %5, 0
  br i1 %.not, label %23, label %6

6:                                                ; preds = %1
  %7 = getelementptr inbounds nuw i8, ptr %3, i64 12
  %8 = load i32, ptr %7, align 4, !tbaa !45
  %9 = icmp eq i32 %8, 0
  br i1 %9, label %10, label %23

10:                                               ; preds = %6
  %11 = getelementptr inbounds nuw i8, ptr %3, i64 64
  %12 = load i64, ptr %11, align 8, !tbaa !46
  %13 = getelementptr inbounds nuw i8, ptr %3, i64 24
  %14 = load i64, ptr %13, align 8, !tbaa !47
  %15 = icmp ugt i64 %12, %14
  br i1 %15, label %16, label %23

16:                                               ; preds = %10
  %17 = getelementptr inbounds nuw i8, ptr %3, i64 72
  %18 = load i64, ptr %17, align 8, !tbaa !48
  %19 = getelementptr inbounds nuw i8, ptr %3, i64 40
  %20 = load i64, ptr %19, align 8, !tbaa !49
  %21 = icmp ugt i64 %18, %20
  br i1 %21, label %22, label %23

22:                                               ; preds = %16
  store i32 1, ptr %7, align 4, !tbaa !45
  br label %23

23:                                               ; preds = %10, %16, %22, %6, %1
  %24 = tail call fastcc i32 @drive_compressor(ptr noundef nonnull %0, ptr noundef nonnull %3, i32 noundef 1, ptr noundef null, i64 noundef 0)
  ret i32 %24
}